; Function Attrs: mustprogress nounwind uwtable
define internal fastcc void @"_ZZN9grpc_core9XdsClient12ChannelState22SetChannelStatusLockedEN4absl12lts_202308026StatusEEN3$_0D2Ev"(ptr noundef nonnull align 8 dereferenceable(56) %this) unnamed_addr #4 align 2 personality ptr @__gxx_personality_v0 {
entry:
  %0 = getelementptr inbounds i8, ptr %this, i64 48
  %1 = load i64, ptr %0, align 8
  %and.i.i.i = and i64 %1, 1
  %cmp.i.i.i = icmp eq i64 %and.i.i.i, 0
  br i1 %cmp.i.i.i, label %_ZN4absl12lts_202308026StatusD2Ev.exit, label %if.then.i.i

if.then.i.i:                                      ; preds = %entry
  invoke void @_ZN4absl12lts_202308026Status15UnrefNonInlinedEm(i64 noundef %1)
          to label %_ZN4absl12lts_202308026StatusD2Ev.exit unwind label %terminate.lpad.i

terminate.lpad.i:                                 ; preds = %if.then.i.i
  %2 = landingpad { ptr, i32 }
          catch ptr null
  %3 = extractvalue { ptr, i32 } %2, 0
  tail call void @__clang_call_terminate(ptr %3) #27
  unreachable

_ZN4absl12lts_202308026StatusD2Ev.exit:           ; preds = %entry, %if.then.i.i
  %_M_parent.i.i.i.i = getelementptr inbounds i8, ptr %this, i64 16
  %4 = load ptr, ptr %_M_parent.i.i.i.i, align 8
  invoke void @_ZNSt8_Rb_treeIN9grpc_core13RefCountedPtrINS0_9XdsClient24ResourceWatcherInterfaceEEES4_St9_IdentityIS4_ESt4lessIS4_ESaIS4_EE8_M_eraseEPSt13_Rb_tree_nodeIS4_E(ptr noundef nonnull align 8 dereferenceable(48) %this, ptr noundef %4)
          to label %_ZNSt3setIN9grpc_core13RefCountedPtrINS0_9XdsClient24ResourceWatcherInterfaceEEESt4lessIS4_ESaIS4_EED2Ev.exit unwind label %terminate.lpad.i.i

terminate.lpad.i.i:                               ; preds = %_ZN4absl12lts_202308026StatusD2Ev.exit
  %5 = landingpad { ptr, i32 }
          catch ptr null
  %6 = extractvalue { ptr, i32 } %5, 0
  tail call void @__clang_call_terminate(ptr %6) #27
  unreachable

_ZNSt3setIN9grpc_core13RefCountedPtrINS0_9XdsClient24ResourceWatcherInterfaceEEESt4lessIS4_ESaIS4_EED2Ev.exit: ; preds = %_ZN4absl12lts_202308026StatusD2Ev.exit
  ret void
}